; Function Attrs: mustprogress uwtable
define hidden void @_ZN3sls12basic_plugin13eval_distinctEP3app(ptr dead_on_unwind noalias writable writeonly sret(%class.obj_ref) align 8 captures(none) %0, ptr noundef nonnull readonly align 8 captures(none) dereferenceable(56) %1, ptr noundef readonly captures(none) %2) local_unnamed_addr #3 align 2 {
  %4 = getelementptr inbounds nuw i8, ptr %2, i64 24
  %5 = load i32, ptr %4, align 8, !tbaa !35
  %.not26 = icmp eq i32 %5, 0
  br i1 %.not26, label %_ZN7obj_refI4expr11ast_managerEC2EPS0_RS1_.exit._crit_edge, label %.lr.ph25

.lr.ph25:                                         ; preds = %3
  %6 = getelementptr inbounds nuw i8, ptr %2, i64 32
  %7 = getelementptr inbounds nuw i8, ptr %1, i64 8
  br label %10

_ZN7obj_refI4expr11ast_managerEC2EPS0_RS1_.exit.loopexit: ; preds = %14, %10
  %.pre-phi = phi i64 [ %12, %10 ], [ %16, %14 ]
  %8 = phi i32 [ %11, %10 ], [ %15, %14 ]
  %9 = icmp samesign ult i64 %indvars.iv.next31, %.pre-phi
  %indvars.iv.next = add nuw nsw i64 %indvars.iv, 1
  br i1 %9, label %10, label %_ZN7obj_refI4expr11ast_managerEC2EPS0_RS1_.exit._crit_edge

10:                                               ; preds = %.lr.ph25, %_ZN7obj_refI4expr11ast_managerEC2EPS0_RS1_.exit.loopexit
  %11 = phi i32 [ %5, %.lr.ph25 ], [ %8, %_ZN7obj_refI4expr11ast_managerEC2EPS0_RS1_.exit.loopexit ]
  %indvars.iv30 = phi i64 [ 0, %.lr.ph25 ], [ %indvars.iv.next31, %_ZN7obj_refI4expr11ast_managerEC2EPS0_RS1_.exit.loopexit ]
  %indvars.iv = phi i64 [ 1, %.lr.ph25 ], [ %indvars.iv.next, %_ZN7obj_refI4expr11ast_managerEC2EPS0_RS1_.exit.loopexit ]
  %indvars.iv.next31 = add nuw nsw i64 %indvars.iv30, 1
  %12 = zext i32 %11 to i64
  %.not22 = icmp samesign ult i64 %indvars.iv.next31, %12
  br i1 %.not22, label %.lr.ph, label %_ZN7obj_refI4expr11ast_managerEC2EPS0_RS1_.exit.loopexit

.lr.ph:                                           ; preds = %10
  %13 = getelementptr inbounds nuw [0 x ptr], ptr %6, i64 0, i64 %indvars.iv30
  br label %17

14:                                               ; preds = %17
  %indvars.iv.next28 = add nuw nsw i64 %indvars.iv27, 1
  %15 = load i32, ptr %4, align 8, !tbaa !35
  %16 = zext i32 %15 to i64
  %.not = icmp samesign ult i64 %indvars.iv.next28, %16
  br i1 %.not, label %17, label %_ZN7obj_refI4expr11ast_managerEC2EPS0_RS1_.exit.loopexit, !llvm.loop !131

17:                                               ; preds = %.lr.ph, %14
  %indvars.iv27 = phi i64 [ %indvars.iv, %.lr.ph ], [ %indvars.iv.next28, %14 ]
  %18 = load ptr, ptr %13, align 8, !tbaa !36
  %19 = load ptr, ptr %7, align 8, !tbaa !11
  %20 = tail call noundef zeroext i1 @_ZN3sls7context7is_trueEP4expr(ptr noundef nonnull align 8 dereferenceable(321) %19, ptr noundef %18)
  %21 = getelementptr inbounds nuw [0 x ptr], ptr %6, i64 0, i64 %indvars.iv27
  %22 = load ptr, ptr %21, align 8, !tbaa !36
  %23 = load ptr, ptr %7, align 8, !tbaa !11
  %24 = tail call noundef zeroext i1 @_ZN3sls7context7is_trueEP4expr(ptr noundef nonnull align 8 dereferenceable(321) %23, ptr noundef %22)
  %25 = xor i1 %20, %24
  br i1 %25, label %14, label %26

26:                                               ; preds = %17
  %27 = getelementptr inbounds nuw i8, ptr %1, i64 16
  %28 = load ptr, ptr %27, align 8, !tbaa !3
  %29 = getelementptr inbounds nuw i8, ptr %28, i64 864
  %30 = load ptr, ptr %29, align 8, !tbaa !133
  store ptr %30, ptr %0, align 8, !tbaa !14
  %31 = getelementptr inbounds nuw i8, ptr %0, i64 8
  store ptr %28, ptr %31, align 8, !tbaa !17
  %.not.i.i = icmp eq ptr %30, null
  br i1 %.not.i.i, label %_ZN7obj_refI4expr11ast_managerEC2EPS0_RS1_.exit17, label %_ZN7obj_refI4expr11ast_managerEC2EPS0_RS1_.exit17.sink.split

_ZN7obj_refI4expr11ast_managerEC2EPS0_RS1_.exit._crit_edge: ; preds = %_ZN7obj_refI4expr11ast_managerEC2EPS0_RS1_.exit.loopexit, %3
  %32 = getelementptr inbounds nuw i8, ptr %1, i64 16
  %33 = load ptr, ptr %32, align 8, !tbaa !3
  %34 = getelementptr inbounds nuw i8, ptr %33, i64 856
  %35 = load ptr, ptr %34, align 8, !tbaa !38
  store ptr %35, ptr %0, align 8, !tbaa !14
  %36 = getelementptr inbounds nuw i8, ptr %0, i64 8
  store ptr %33, ptr %36, align 8, !tbaa !17
  %.not.i.i15 = icmp eq ptr %35, null
  br i1 %.not.i.i15, label %_ZN7obj_refI4expr11ast_managerEC2EPS0_RS1_.exit17, label %_ZN7obj_refI4expr11ast_managerEC2EPS0_RS1_.exit17.sink.split

_ZN7obj_refI4expr11ast_managerEC2EPS0_RS1_.exit17.sink.split: ; preds = %_ZN7obj_refI4expr11ast_managerEC2EPS0_RS1_.exit._crit_edge, %26
  %.sink36 = phi ptr [ %30, %26 ], [ %35, %_ZN7obj_refI4expr11ast_managerEC2EPS0_RS1_.exit._crit_edge ]
  %37 = getelementptr inbounds nuw i8, ptr %.sink36, i64 8
  %38 = load i32, ptr %37, align 4, !tbaa !18
  %39 = add i32 %38, 1
  store i32 %39, ptr %37, align 4, !tbaa !18
  br label %_ZN7obj_refI4expr11ast_managerEC2EPS0_RS1_.exit17

_ZN7obj_refI4expr11ast_managerEC2EPS0_RS1_.exit17: ; preds = %_ZN7obj_refI4expr11ast_managerEC2EPS0_RS1_.exit17.sink.split, %26, %_ZN7obj_refI4expr11ast_managerEC2EPS0_RS1_.exit._crit_edge
  ret void
}